target datalayout = "e-m:e-p270:32:32-p271:32:32-p272:64:64-i64:64-i128:128-f80:128-n8:16:32:64-S128"
target triple = "x86_64-pc-linux-gnu"

%struct.IpvideoContext = type { ptr, %struct.HpelDSPContext, ptr, ptr, ptr, ptr, ptr, i32, ptr, i32, i32, %struct.GetByteContext, %struct.GetByteContext, ptr, i32, i32, i32, [256 x i32] }
%struct.HpelDSPContext = type { [4 x [4 x ptr]], [4 x [4 x ptr]], [4 x [4 x ptr]], [4 x ptr] }
%struct.GetByteContext = type { ptr, ptr, ptr }

; Function Attrs: alwaysinline nounwind uwtable
define internal i32 @bytestream_get_le16(ptr noundef %0) #4 {
  %2 = alloca ptr, align 8
  store ptr %0, ptr %2, align 8, !tbaa !94
  %3 = load ptr, ptr %2, align 8, !tbaa !94
  %4 = load ptr, ptr %3, align 8, !tbaa !59
  %5 = getelementptr inbounds i8, ptr %4, i64 2
  store ptr %5, ptr %3, align 8, !tbaa !59
  %6 = load ptr, ptr %2, align 8, !tbaa !94
  %7 = load ptr, ptr %6, align 8, !tbaa !59
  %8 = getelementptr inbounds i8, ptr %7, i64 -2
  %9 = load i16, ptr %8, align 1, !tbaa !62
  %10 = zext i16 %9 to i32
  ret i32 %10
}

; Function Attrs: alwaysinline nounwind uwtable
define internal i32 @bytestream2_get_le16u(ptr noundef %0) #4 {
  %2 = alloca ptr, align 8
  store ptr %0, ptr %2, align 8, !tbaa !67
  %3 = load ptr, ptr %2, align 8, !tbaa !67
  %4 = getelementptr inbounds nuw %struct.GetByteContext, ptr %3, i32 0, i32 0
  %5 = call i32 @bytestream_get_le16(ptr noundef %4)
  ret i32 %5
}

; Function Attrs: alwaysinline nounwind uwtable
define internal i32 @bytestream2_get_le16(ptr noundef %0) #4 {
  %2 = alloca i32, align 4
  %3 = alloca ptr, align 8
  store ptr %0, ptr %3, align 8, !tbaa !67
  %4 = load ptr, ptr %3, align 8, !tbaa !67
  %5 = getelementptr inbounds nuw %struct.GetByteContext, ptr %4, i32 0, i32 1
  %6 = load ptr, ptr %5, align 8, !tbaa !71
  %7 = load ptr, ptr %3, align 8, !tbaa !67
  %8 = getelementptr inbounds nuw %struct.GetByteContext, ptr %7, i32 0, i32 0
  %9 = load ptr, ptr %8, align 8, !tbaa !69
  %10 = ptrtoint ptr %6 to i64
  %11 = ptrtoint ptr %9 to i64
  %12 = sub i64 %10, %11
  %13 = icmp slt i64 %12, 2
  br i1 %13, label %14, label %20

14:                                               ; preds = %1
  %15 = load ptr, ptr %3, align 8, !tbaa !67
  %16 = getelementptr inbounds nuw %struct.GetByteContext, ptr %15, i32 0, i32 1
  %17 = load ptr, ptr %16, align 8, !tbaa !71
  %18 = load ptr, ptr %3, align 8, !tbaa !67
  %19 = getelementptr inbounds nuw %struct.GetByteContext, ptr %18, i32 0, i32 0
  store ptr %17, ptr %19, align 8, !tbaa !69
  store i32 0, ptr %2, align 4
  br label %23

20:                                               ; preds = %1
  %21 = load ptr, ptr %3, align 8, !tbaa !67
  %22 = call i32 @bytestream2_get_le16u(ptr noundef %21)
  store i32 %22, ptr %2, align 4
  br label %23

23:                                               ; preds = %20, %14
  %24 = load i32, ptr %2, align 4
  ret i32 %24
}

; Function Attrs: nounwind uwtable
define internal i32 @ipvideo_decode_block_opcode_0xD_16(ptr noundef %0, ptr noundef %1) #1 {
  %3 = alloca ptr, align 8
  %4 = alloca ptr, align 8
  %5 = alloca i32, align 4
  %6 = alloca i32, align 4
  %7 = alloca [2 x i16], align 2
  %8 = alloca ptr, align 8
  store ptr %0, ptr %3, align 8, !tbaa !29
  store ptr %1, ptr %4, align 8, !tbaa !53
  call void @llvm.lifetime.start.p0(i64 4, ptr %5) #11
  call void @llvm.lifetime.start.p0(i64 4, ptr %6) #11
  call void @llvm.lifetime.start.p0(i64 4, ptr %7) #11
  call void @llvm.lifetime.start.p0(i64 8, ptr %8) #11
  %9 = load ptr, ptr %3, align 8, !tbaa !29
  %10 = getelementptr inbounds nuw %struct.IpvideoContext, ptr %9, i32 0, i32 13
  %11 = load ptr, ptr %10, align 8, !tbaa !77
  store ptr %11, ptr %8, align 8, !tbaa !135
  store i32 0, ptr %6, align 4, !tbaa !61
  br label %12

12:                                               ; preds = %54, %2
  %13 = load i32, ptr %6, align 4, !tbaa !61
  %14 = icmp slt i32 %13, 8
  br i1 %14, label %15, label %57

15:                                               ; preds = %12
  %16 = load i32, ptr %6, align 4, !tbaa !61
  %17 = and i32 %16, 3
  %18 = icmp ne i32 %17, 0
  br i1 %18, label %30, label %19

19:                                               ; preds = %15
  %20 = load ptr, ptr %3, align 8, !tbaa !29
  %21 = getelementptr inbounds nuw %struct.IpvideoContext, ptr %20, i32 0, i32 11
  %22 = call i32 @bytestream2_get_le16(ptr noundef %21)
  %23 = trunc i32 %22 to i16
  %24 = getelementptr inbounds [2 x i16], ptr %7, i64 0, i64 0
  store i16 %23, ptr %24, align 2, !tbaa !75
  %25 = load ptr, ptr %3, align 8, !tbaa !29
  %26 = getelementptr inbounds nuw %struct.IpvideoContext, ptr %25, i32 0, i32 11
  %27 = call i32 @bytestream2_get_le16(ptr noundef %26)
  %28 = trunc i32 %27 to i16
  %29 = getelementptr inbounds [2 x i16], ptr %7, i64 0, i64 1
  store i16 %28, ptr %29, align 2, !tbaa !75
  br label %30

30:                                               ; preds = %19, %15
  store i32 0, ptr %5, align 4, !tbaa !61
  br label %31

31:                                               ; preds = %44, %30
  %32 = load i32, ptr %5, align 4, !tbaa !61
  %33 = icmp slt i32 %32, 8
  br i1 %33, label %34, label %47

34:                                               ; preds = %31
  %35 = load i32, ptr %5, align 4, !tbaa !61
  %36 = ashr i32 %35, 2
  %37 = sext i32 %36 to i64
  %38 = getelementptr inbounds [2 x i16], ptr %7, i64 0, i64 %37
  %39 = load i16, ptr %38, align 2, !tbaa !75
  %40 = load ptr, ptr %8, align 8, !tbaa !135
  %41 = load i32, ptr %5, align 4, !tbaa !61
  %42 = sext i32 %41 to i64
  %43 = getelementptr inbounds i16, ptr %40, i64 %42
  store i16 %39, ptr %43, align 2, !tbaa !75
  br label %44

44:                                               ; preds = %34
  %45 = load i32, ptr %5, align 4, !tbaa !61
  %46 = add nsw i32 %45, 1
  store i32 %46, ptr %5, align 4, !tbaa !61
  br label %31, !llvm.loop !166

47:                                               ; preds = %31
  %48 = load ptr, ptr %3, align 8, !tbaa !29
  %49 = getelementptr inbounds nuw %struct.IpvideoContext, ptr %48, i32 0, i32 15
  %50 = load i32, ptr %49, align 4, !tbaa !72
  %51 = load ptr, ptr %8, align 8, !tbaa !135
  %52 = sext i32 %50 to i64
  %53 = getelementptr inbounds i16, ptr %51, i64 %52
  store ptr %53, ptr %8, align 8, !tbaa !135
  br label %54

54:                                               ; preds = %47
  %55 = load i32, ptr %6, align 4, !tbaa !61
  %56 = add nsw i32 %55, 1
  store i32 %56, ptr %6, align 4, !tbaa !61
  br label %12, !llvm.loop !167

57:                                               ; preds = %12
  call void @llvm.lifetime.end.p0(i64 8, ptr %8) #11
  call void @llvm.lifetime.end.p0(i64 4, ptr %7) #11
  call void @llvm.lifetime.end.p0(i64 4, ptr %6) #11
  call void @llvm.lifetime.end.p0(i64 4, ptr %5) #11
  ret i32 0
}