; Function Attrs: nofree norecurse nosync nounwind memory(readwrite, inaccessiblemem: none) uwtable
define internal noundef i32 @ipvideo_decode_block_opcode_0xD_16(ptr noundef captures(none) %0, ptr readnone captures(none) %1) #6 {
  %3 = alloca [2 x i16], align 2
  call void @llvm.lifetime.start.p0(i64 4, ptr nonnull %3) #9
  %4 = getelementptr inbounds nuw i8, ptr %0, i64 536
  %5 = load ptr, ptr %4, align 8, !tbaa !67
  %6 = getelementptr inbounds nuw i8, ptr %0, i64 548
  %7 = load i32, ptr %6, align 4, !tbaa !63
  %8 = sext i32 %7 to i64
  %9 = getelementptr inbounds nuw i8, ptr %0, i64 488
  %10 = getelementptr inbounds nuw i8, ptr %0, i64 496
  %11 = getelementptr inbounds nuw i8, ptr %3, i64 2
  br label %12

12:                                               ; preds = %2, %37
  %.018 = phi ptr [ %5, %2 ], [ %38, %37 ]
  %.01217 = phi i32 [ 0, %2 ], [ %39, %37 ]
  %13 = and i32 %.01217, 3
  %.not = icmp eq i32 %13, 0
  br i1 %.not, label %14, label %.preheader

14:                                               ; preds = %12
  %15 = load ptr, ptr %10, align 8, !tbaa !60
  %16 = load ptr, ptr %9, align 8, !tbaa !58
  %17 = ptrtoint ptr %15 to i64
  %18 = ptrtoint ptr %16 to i64
  %19 = sub i64 %17, %18
  %20 = icmp slt i64 %19, 2
  br i1 %20, label %bytestream2_get_le16.exit15, label %21

21:                                               ; preds = %14
  %22 = getelementptr inbounds nuw i8, ptr %16, i64 2
  store ptr %22, ptr %9, align 8, !tbaa !53
  %23 = load i16, ptr %16, align 1, !tbaa !54
  %.pre = ptrtoint ptr %22 to i64
  br label %bytestream2_get_le16.exit15

bytestream2_get_le16.exit15:                      ; preds = %14, %21
  %.pre-phi = phi i64 [ %.pre, %21 ], [ %17, %14 ]
  %24 = phi ptr [ %22, %21 ], [ %15, %14 ]
  %.0.i14 = phi i16 [ %23, %21 ], [ 0, %14 ]
  store i16 %.0.i14, ptr %3, align 2, !tbaa !116
  %25 = sub i64 %17, %.pre-phi
  %26 = icmp slt i64 %25, 2
  br i1 %26, label %27, label %28

27:                                               ; preds = %bytestream2_get_le16.exit15
  store ptr %15, ptr %9, align 8, !tbaa !58
  br label %bytestream2_get_le16.exit

28:                                               ; preds = %bytestream2_get_le16.exit15
  %29 = getelementptr inbounds nuw i8, ptr %24, i64 2
  store ptr %29, ptr %9, align 8, !tbaa !53
  %30 = load i16, ptr %24, align 1, !tbaa !54
  br label %bytestream2_get_le16.exit

bytestream2_get_le16.exit:                        ; preds = %27, %28
  %.0.i = phi i16 [ 0, %27 ], [ %30, %28 ]
  store i16 %.0.i, ptr %11, align 2, !tbaa !116
  br label %.preheader

.preheader:                                       ; preds = %bytestream2_get_le16.exit, %12
  br label %31

31:                                               ; preds = %.preheader, %31
  %indvars.iv = phi i64 [ %indvars.iv.next, %31 ], [ 0, %.preheader ]
  %32 = lshr i64 %indvars.iv, 2
  %33 = and i64 %32, 1073741823
  %34 = getelementptr inbounds nuw [2 x i16], ptr %3, i64 0, i64 %33
  %35 = load i16, ptr %34, align 2, !tbaa !116
  %36 = getelementptr inbounds nuw i16, ptr %.018, i64 %indvars.iv
  store i16 %35, ptr %36, align 2, !tbaa !116
  %indvars.iv.next = add nuw nsw i64 %indvars.iv, 1
  %exitcond.not = icmp eq i64 %indvars.iv.next, 8
  br i1 %exitcond.not, label %37, label %31, !llvm.loop !148

37:                                               ; preds = %31
  %38 = getelementptr inbounds i16, ptr %.018, i64 %8
  %39 = add nuw nsw i32 %.01217, 1
  %exitcond20.not = icmp eq i32 %39, 8
  br i1 %exitcond20.not, label %40, label %12, !llvm.loop !149

40:                                               ; preds = %37
  call void @llvm.lifetime.end.p0(i64 4, ptr nonnull %3) #9
  ret i32 0
}